target datalayout = "e-m:e-p270:32:32-p271:32:32-p272:64:64-i64:64-i128:128-f80:128-n8:16:32:64-S128"
target triple = "x86_64-pc-linux-gnu"

; Function Attrs: nounwind uwtable
define dso_local i32 @remove_or_warn(i32 noundef %0, ptr noundef %1) #0 {
  %3 = alloca i32, align 4
  %4 = alloca ptr, align 8
  store i32 %0, ptr %3, align 4, !tbaa !16
  store ptr %1, ptr %4, align 8, !tbaa !56
  %5 = load i32, ptr %3, align 4, !tbaa !16
  %6 = and i32 %5, 61440
  %7 = icmp eq i32 %6, 57344
  br i1 %7, label %8, label %11

8:                                                ; preds = %2
  %9 = load ptr, ptr %4, align 8, !tbaa !56
  %10 = call i32 @rmdir_or_warn(ptr noundef %9)
  br label %14

11:                                               ; preds = %2
  %12 = load ptr, ptr %4, align 8, !tbaa !56
  %13 = call i32 @unlink_or_warn(ptr noundef %12)
  br label %14

14:                                               ; preds = %11, %8
  %15 = phi i32 [ %10, %8 ], [ %13, %11 ]
  ret i32 %15
}