; Function Attrs: nounwind uwtable
define dso_local i32 @remove_or_warn(i32 noundef %0, ptr noundef %1) local_unnamed_addr #0 {
  %3 = and i32 %0, 61440
  %4 = icmp eq i32 %3, 57344
  br i1 %4, label %5, label %7

5:                                                ; preds = %2
  %6 = tail call i32 @rmdir_or_warn(ptr noundef %1) #16
  br label %9

7:                                                ; preds = %2
  %8 = tail call i32 @unlink_or_warn(ptr noundef %1) #16
  br label %9

9:                                                ; preds = %7, %5
  %10 = phi i32 [ %6, %5 ], [ %8, %7 ]
  ret i32 %10
}